target datalayout = "e-m:e-p270:32:32-p271:32:32-p272:64:64-i64:64-i128:128-f80:128-n8:16:32:64-S128"
target triple = "x86_64-pc-linux-gnu"

%struct.tsi_ssl_handshaker = type { %struct.tsi_handshaker, ptr, ptr, i32, ptr, i64, ptr }
%struct.tsi_handshaker = type { ptr, i8, i8, i8 }
%"class.std::__cxx11::basic_string" = type { %"struct.std::__cxx11::basic_string<char>::_Alloc_hider", i64, %union.anon }
%"struct.std::__cxx11::basic_string<char>::_Alloc_hider" = type { ptr }
%union.anon = type { i64, [8 x i8] }
%struct.tsi_ssl_handshaker_result = type { %struct.tsi_handshaker_result, ptr, ptr, ptr, i64 }
%struct.tsi_handshaker_result = type { ptr }

@.str.55 = private unnamed_addr constant [17 x i8] c"invalid argument\00", align 1

; Function Attrs: mustprogress nounwind uwtable
define linkonce_odr noundef i64 @_ZNSt11char_traitsIcE6lengthEPKc(ptr noundef %0) #7 comdat align 2 {
  %2 = alloca ptr, align 8
  store ptr %0, ptr %2, align 8, !tbaa !3
  %3 = load ptr, ptr %2, align 8, !tbaa !3
  %4 = call i64 @strlen(ptr noundef %3) #3
  ret i64 %4
}

; Function Attrs: mustprogress nounwind uwtable
define available_externally noundef i64 @_ZNKSt7__cxx1112basic_stringIcSt11char_traitsIcESaIcEE4sizeEv(ptr noundef nonnull align 8 dereferenceable(32) %0) #7 align 2 {
  %2 = alloca ptr, align 8
  store ptr %0, ptr %2, align 8, !tbaa !24
  %3 = load ptr, ptr %2, align 8
  %4 = getelementptr inbounds nuw %"class.std::__cxx11::basic_string", ptr %3, i32 0, i32 1
  %5 = load i64, ptr %4, align 8, !tbaa !251
  ret i64 %5
}

; Function Attrs: mustprogress uwtable
define available_externally noundef nonnull align 8 dereferenceable(32) ptr @_ZNSt7__cxx1112basic_stringIcSt11char_traitsIcESaIcEE6assignEPKc(ptr noundef nonnull align 8 dereferenceable(32) %0, ptr noundef %1) #4 align 2 {
  %3 = alloca ptr, align 8
  %4 = alloca ptr, align 8
  store ptr %0, ptr %3, align 8, !tbaa !24
  store ptr %1, ptr %4, align 8, !tbaa !3
  %5 = load ptr, ptr %3, align 8
  %6 = call noundef i64 @_ZNKSt7__cxx1112basic_stringIcSt11char_traitsIcESaIcEE4sizeEv(ptr noundef nonnull align 8 dereferenceable(32) %5) #3
  %7 = load ptr, ptr %4, align 8, !tbaa !3
  %8 = load ptr, ptr %4, align 8, !tbaa !3
  %9 = call noundef i64 @_ZNSt11char_traitsIcE6lengthEPKc(ptr noundef %8)
  %10 = call noundef nonnull align 8 dereferenceable(32) ptr @_ZNSt7__cxx1112basic_stringIcSt11char_traitsIcESaIcEE10_M_replaceEmmPKcm(ptr noundef nonnull align 8 dereferenceable(32) %5, i64 noundef 0, i64 noundef %6, ptr noundef %7, i64 noundef %9)
  ret ptr %10
}

; Function Attrs: mustprogress uwtable
define linkonce_odr noundef ptr @_ZN9grpc_core6ZallocI25tsi_ssl_handshaker_resultEEPT_v() #4 comdat {
  %1 = call ptr @gpr_zalloc(i64 noundef 40)
  ret ptr %1
}

; Function Attrs: mustprogress uwtable
define available_externally noundef nonnull align 8 dereferenceable(32) ptr @_ZNSt7__cxx1112basic_stringIcSt11char_traitsIcESaIcEEaSEPKc(ptr noundef nonnull align 8 dereferenceable(32) %0, ptr noundef %1) #4 align 2 {
  %3 = alloca ptr, align 8
  %4 = alloca ptr, align 8
  store ptr %0, ptr %3, align 8, !tbaa !24
  store ptr %1, ptr %4, align 8, !tbaa !3
  %5 = load ptr, ptr %3, align 8
  %6 = load ptr, ptr %4, align 8, !tbaa !3
  %7 = call noundef nonnull align 8 dereferenceable(32) ptr @_ZNSt7__cxx1112basic_stringIcSt11char_traitsIcESaIcEE6assignEPKc(ptr noundef nonnull align 8 dereferenceable(32) %5, ptr noundef %6)
  ret ptr %7
}

; Function Attrs: mustprogress uwtable
define internal noundef i32 @_ZL28ssl_handshaker_result_createP18tsi_ssl_handshakerPhmPP21tsi_handshaker_resultPNSt7__cxx1112basic_stringIcSt11char_traitsIcESaIcEEE(ptr noundef %0, ptr noundef %1, i64 noundef %2, ptr noundef %3, ptr noundef %4) #4 {
  %6 = alloca i32, align 4
  %7 = alloca ptr, align 8
  %8 = alloca ptr, align 8
  %9 = alloca i64, align 8
  %10 = alloca ptr, align 8
  %11 = alloca ptr, align 8
  %12 = alloca ptr, align 8
  store ptr %0, ptr %7, align 8, !tbaa !88
  store ptr %1, ptr %8, align 8, !tbaa !3
  store i64 %2, ptr %9, align 8, !tbaa !26
  store ptr %3, ptr %10, align 8, !tbaa !313
  store ptr %4, ptr %11, align 8, !tbaa !24
  %13 = load ptr, ptr %7, align 8, !tbaa !88
  %14 = icmp eq ptr %13, null
  br i1 %14, label %24, label %15

15:                                               ; preds = %5
  %16 = load ptr, ptr %10, align 8, !tbaa !313
  %17 = icmp eq ptr %16, null
  br i1 %17, label %24, label %18

18:                                               ; preds = %15
  %19 = load i64, ptr %9, align 8, !tbaa !26
  %20 = icmp ugt i64 %19, 0
  br i1 %20, label %21, label %31

21:                                               ; preds = %18
  %22 = load ptr, ptr %8, align 8, !tbaa !3
  %23 = icmp eq ptr %22, null
  br i1 %23, label %24, label %31

24:                                               ; preds = %21, %15, %5
  %25 = load ptr, ptr %11, align 8, !tbaa !24
  %26 = icmp ne ptr %25, null
  br i1 %26, label %27, label %30

27:                                               ; preds = %24
  %28 = load ptr, ptr %11, align 8, !tbaa !24
  %29 = call noundef nonnull align 8 dereferenceable(32) ptr @_ZNSt7__cxx1112basic_stringIcSt11char_traitsIcESaIcEEaSEPKc(ptr noundef nonnull align 8 dereferenceable(32) %28, ptr noundef @.str.55)
  br label %30

30:                                               ; preds = %27, %24
  store i32 2, ptr %6, align 4
  br label %59

31:                                               ; preds = %21, %18
  call void @llvm.lifetime.start.p0(i64 8, ptr %12) #3
  %32 = call noundef ptr @_ZN9grpc_core6ZallocI25tsi_ssl_handshaker_resultEEPT_v()
  store ptr %32, ptr %12, align 8, !tbaa !320
  %33 = load ptr, ptr %12, align 8, !tbaa !320
  %34 = getelementptr inbounds nuw %struct.tsi_ssl_handshaker_result, ptr %33, i32 0, i32 0
  %35 = getelementptr inbounds nuw %struct.tsi_handshaker_result, ptr %34, i32 0, i32 0
  store ptr @_ZL24handshaker_result_vtable, ptr %35, align 8, !tbaa !329
  %36 = load ptr, ptr %7, align 8, !tbaa !88
  %37 = getelementptr inbounds nuw %struct.tsi_ssl_handshaker, ptr %36, i32 0, i32 1
  %38 = load ptr, ptr %37, align 8, !tbaa !92
  %39 = load ptr, ptr %12, align 8, !tbaa !320
  %40 = getelementptr inbounds nuw %struct.tsi_ssl_handshaker_result, ptr %39, i32 0, i32 1
  store ptr %38, ptr %40, align 8, !tbaa !322
  %41 = load ptr, ptr %7, align 8, !tbaa !88
  %42 = getelementptr inbounds nuw %struct.tsi_ssl_handshaker, ptr %41, i32 0, i32 1
  store ptr null, ptr %42, align 8, !tbaa !92
  %43 = load ptr, ptr %7, align 8, !tbaa !88
  %44 = getelementptr inbounds nuw %struct.tsi_ssl_handshaker, ptr %43, i32 0, i32 2
  %45 = load ptr, ptr %44, align 8, !tbaa !97
  %46 = load ptr, ptr %12, align 8, !tbaa !320
  %47 = getelementptr inbounds nuw %struct.tsi_ssl_handshaker_result, ptr %46, i32 0, i32 2
  store ptr %45, ptr %47, align 8, !tbaa !330
  %48 = load ptr, ptr %7, align 8, !tbaa !88
  %49 = getelementptr inbounds nuw %struct.tsi_ssl_handshaker, ptr %48, i32 0, i32 2
  store ptr null, ptr %49, align 8, !tbaa !97
  %50 = load ptr, ptr %8, align 8, !tbaa !3
  %51 = load ptr, ptr %12, align 8, !tbaa !320
  %52 = getelementptr inbounds nuw %struct.tsi_ssl_handshaker_result, ptr %51, i32 0, i32 3
  store ptr %50, ptr %52, align 8, !tbaa !331
  %53 = load i64, ptr %9, align 8, !tbaa !26
  %54 = load ptr, ptr %12, align 8, !tbaa !320
  %55 = getelementptr inbounds nuw %struct.tsi_ssl_handshaker_result, ptr %54, i32 0, i32 4
  store i64 %53, ptr %55, align 8, !tbaa !332
  %56 = load ptr, ptr %12, align 8, !tbaa !320
  %57 = getelementptr inbounds nuw %struct.tsi_ssl_handshaker_result, ptr %56, i32 0, i32 0
  %58 = load ptr, ptr %10, align 8, !tbaa !313
  store ptr %57, ptr %58, align 8, !tbaa !317
  store i32 0, ptr %6, align 4
  call void @llvm.lifetime.end.p0(i64 8, ptr %12) #3
  br label %59

59:                                               ; preds = %31, %30
  %60 = load i32, ptr %6, align 4
  ret i32 %60
}