; Function Attrs: mustprogress uwtable
define internal fastcc noundef range(i32 0, 3) i32 @_ZL28ssl_handshaker_result_createP18tsi_ssl_handshakerPhmPP21tsi_handshaker_resultPNSt7__cxx1112basic_stringIcSt11char_traitsIcESaIcEEE(ptr noundef %0, ptr noundef %1, i64 noundef %2, ptr noundef nonnull writeonly captures(none) %3, ptr noundef %4) unnamed_addr #3 {
  %6 = icmp eq ptr %0, null
  br i1 %6, label %10, label %7

7:                                                ; preds = %5
  %8 = icmp ne i64 %2, 0
  %9 = icmp eq ptr %1, null
  %or.cond3 = and i1 %9, %8
  br i1 %or.cond3, label %10, label %15

10:                                               ; preds = %7, %5
  %.not = icmp eq ptr %4, null
  br i1 %.not, label %25, label %11

11:                                               ; preds = %10
  %12 = getelementptr inbounds nuw i8, ptr %4, i64 8
  %13 = load i64, ptr %12, align 8, !tbaa !12
  %14 = tail call noundef nonnull align 8 dereferenceable(32) ptr @_ZNSt7__cxx1112basic_stringIcSt11char_traitsIcESaIcEE10_M_replaceEmmPKcm(ptr noundef nonnull align 8 dereferenceable(32) %4, i64 noundef 0, i64 noundef %13, ptr noundef nonnull @.str.55, i64 noundef 16)
  br label %25

15:                                               ; preds = %7
  %16 = tail call noundef ptr @gpr_zalloc(i64 noundef 40)
  store ptr @_ZL24handshaker_result_vtable, ptr %16, align 8, !tbaa !216
  %17 = getelementptr inbounds nuw i8, ptr %0, i64 16
  %18 = load ptr, ptr %17, align 8, !tbaa !62
  %19 = getelementptr inbounds nuw i8, ptr %16, i64 8
  store ptr %18, ptr %19, align 8, !tbaa !208
  store ptr null, ptr %17, align 8, !tbaa !62
  %20 = getelementptr inbounds nuw i8, ptr %0, i64 24
  %21 = load ptr, ptr %20, align 8, !tbaa !70
  %22 = getelementptr inbounds nuw i8, ptr %16, i64 16
  store ptr %21, ptr %22, align 8, !tbaa !217
  store ptr null, ptr %20, align 8, !tbaa !70
  %23 = getelementptr inbounds nuw i8, ptr %16, i64 24
  store ptr %1, ptr %23, align 8, !tbaa !218
  %24 = getelementptr inbounds nuw i8, ptr %16, i64 32
  store i64 %2, ptr %24, align 8, !tbaa !219
  store ptr %16, ptr %3, align 8, !tbaa !205
  br label %25

25:                                               ; preds = %10, %11, %15
  %.0 = phi i32 [ 0, %15 ], [ 2, %11 ], [ 2, %10 ]
  ret i32 %.0
}